ARM GAS  /var/folders/8d/9_h4bwrs4t923hh6vkkb02fw0000gn/T//cc0Ow2Qw.s 			page 1


   1              		.cpu cortex-m7
   2              		.eabi_attribute 28, 1
   3              		.eabi_attribute 20, 1
   4              		.eabi_attribute 21, 1
   5              		.eabi_attribute 23, 3
   6              		.eabi_attribute 24, 1
   7              		.eabi_attribute 25, 1
   8              		.eabi_attribute 26, 1
   9              		.eabi_attribute 30, 2
  10              		.eabi_attribute 34, 1
  11              		.eabi_attribute 18, 4
  12              		.file	"QuadFO.cpp"
  13              		.text
  14              		.section	.text._ZN5daisy9ParameterD2Ev,"axG",%progbits,_ZN5daisy9ParameterD5Ev,comdat
  15              		.align	1
  16              		.p2align 2,,3
  17              		.weak	_ZN5daisy9ParameterD2Ev
  18              		.arch armv7e-m
  19              		.syntax unified
  20              		.thumb
  21              		.thumb_func
  22              		.fpu fpv5-d16
  24              	_ZN5daisy9ParameterD2Ev:
  25              		@ args = 0, pretend = 0, frame = 0
  26              		@ frame_needed = 0, uses_anonymous_args = 0
  27              		@ link register save eliminated.
  28 0000 7047     		bx	lr
  30              		.weak	_ZN5daisy9ParameterD1Ev
  31              		.thumb_set _ZN5daisy9ParameterD1Ev,_ZN5daisy9ParameterD2Ev
  32 0002 00BF     		.section	.text._ZN5daisy10DaisyPatchD2Ev,"axG",%progbits,_ZN5daisy10DaisyPatchD5Ev,comdat
  33              		.align	1
  34              		.p2align 2,,3
  35              		.weak	_ZN5daisy10DaisyPatchD2Ev
  36              		.syntax unified
  37              		.thumb
  38              		.thumb_func
  39              		.fpu fpv5-d16
  41              	_ZN5daisy10DaisyPatchD2Ev:
  42              		@ args = 0, pretend = 0, frame = 0
  43              		@ frame_needed = 0, uses_anonymous_args = 0
  44              		@ link register save eliminated.
  45 0000 7047     		bx	lr
  47              		.weak	_ZN5daisy10DaisyPatchD1Ev
  48              		.thumb_set _ZN5daisy10DaisyPatchD1Ev,_ZN5daisy10DaisyPatchD2Ev
  49 0002 00BF     		.section	.text.__tcf_0,"ax",%progbits
  50              		.align	1
  51              		.p2align 2,,3
  52              		.syntax unified
  53              		.thumb
  54              		.thumb_func
  55              		.fpu fpv5-d16
  57              	__tcf_0:
  58              		@ args = 0, pretend = 0, frame = 0
  59              		@ frame_needed = 0, uses_anonymous_args = 0
  60              		@ link register save eliminated.
  61 0000 7047     		bx	lr
  63 0002 00BF     		.section	.text._ZL13AudioCallbackPPfS0_j,"ax",%progbits
ARM GAS  /var/folders/8d/9_h4bwrs4t923hh6vkkb02fw0000gn/T//cc0Ow2Qw.s 			page 2


  64              		.align	1
  65              		.p2align 2,,3
  66              		.syntax unified
  67              		.thumb
  68              		.thumb_func
  69              		.fpu fpv5-d16
  71              	_ZL13AudioCallbackPPfS0_j:
  72              		@ args = 0, pretend = 0, frame = 16
  73              		@ frame_needed = 0, uses_anonymous_args = 0
  74 0000 2DE9F04F 		push	{r4, r5, r6, r7, r8, r9, r10, fp, lr}
  75 0004 2DED028B 		vpush.64	{d8}
  76 0008 85B0     		sub	sp, sp, #20
  77 000a 4048     		ldr	r0, .L21
  78 000c 0C46     		mov	r4, r1
  79 000e 1546     		mov	r5, r2
  80 0010 0292     		str	r2, [sp, #8]
  81 0012 FFF7FEFF 		bl	_ZN5daisy10DaisyPatch20UpdateAnalogControlsEv
  82 0016 3D48     		ldr	r0, .L21
  83 0018 FFF7FEFF 		bl	_ZN5daisy10DaisyPatch16DebounceControlsEv
  84 001c DFF814B1 		ldr	fp, .L21+40
  85 0020 3B48     		ldr	r0, .L21+4
  86 0022 FFF7FEFF 		bl	_ZN5daisy9Parameter7ProcessEv
  87 0026 3B48     		ldr	r0, .L21+8
  88 0028 8BED000A 		vstr.32	s0, [fp]
  89 002c FFF7FEFF 		bl	_ZN5daisy9Parameter7ProcessEv
  90 0030 FCEEC07A 		vcvt.u32.f32	s15, s0
  91 0034 3848     		ldr	r0, .L21+12
  92 0036 CDED017A 		vstr.32	s15, [sp, #4]	@ int
  93 003a FFF7FEFF 		bl	_ZN5daisy9Parameter7ProcessEv
  94 003e 3749     		ldr	r1, .L21+16
  95 0040 4FF07C52 		mov	r2, #1056964608
  96 0044 4FF07E53 		mov	r3, #1065353216
  97 0048 0A60     		str	r2, [r1]	@ float
  98 004a 3549     		ldr	r1, .L21+20
  99 004c 0B60     		str	r3, [r1]	@ float
 100 004e 002D     		cmp	r5, #0
 101 0050 56D0     		beq	.L5
 102 0052 DFED347A 		vldr.32	s15, .L21+24
 103 0056 231F     		subs	r3, r4, #4
 104 0058 9FED338A 		vldr.32	s16, .L21+28
 105 005c 4FF0000A 		mov	r10, #0
 106 0060 B4EEE70A 		vcmpe.f32	s0, s15
 107 0064 DFF8D090 		ldr	r9, .L21+44
 108 0068 0393     		str	r3, [sp, #12]
 109 006a F1EE10FA 		vmrs	APSR_nzcv, FPSCR
 110 006e 58BF     		it	pl
 111 0070 B0EE408A 		vmovpl.f32	s16, s0
 112              	.L12:
 113 0074 4FEA8A06 		lsl	r6, r10, #2
 114 0078 2C4C     		ldr	r4, .L21+32
 115 007a DFF8C080 		ldr	r8, .L21+48
 116 007e 039D     		ldr	r5, [sp, #12]
 117              	.L11:
 118 0080 B4EC010A 		vldmia.32	r4!, {s0}
 119 0084 B7EE006B 		vmov.f64	d6, #1.0e+0
 120 0088 9BED007A 		vldr.32	s14, [fp]
 121 008c 4046     		mov	r0, r8
ARM GAS  /var/folders/8d/9_h4bwrs4t923hh6vkkb02fw0000gn/T//cc0Ow2Qw.s 			page 3


 122 008e 20EE080A 		vmul.f32	s0, s0, s16
 123 0092 B7EEC77A 		vcvt.f64.f32	d7, s14
 124 0096 B7EEC00A 		vcvt.f64.f32	d0, s0
 125 009a 30EE060B 		vadd.f64	d0, d0, d6
 126 009e 20EE070B 		vmul.f64	d0, d0, d7
 127 00a2 B7EEC00B 		vcvt.f32.f64	s0, d0
 128 00a6 88ED020A 		vstr.32	s0, [r8, #8]
 129 00aa FFF7FEFF 		bl	_ZN7daisysp10Oscillator12CalcPhaseIncEf
 130 00ae 019A     		ldr	r2, [sp, #4]
 131 00b0 F7EE007A 		vmov.f32	s15, #1.0e+0
 132 00b4 1E4B     		ldr	r3, .L21+36
 133 00b6 4046     		mov	r0, r8
 134 00b8 9BED007A 		vldr.32	s14, [fp]
 135 00bc 08F12408 		add	r8, r8, #36
 136 00c0 9B5C     		ldrb	r3, [r3, r2]	@ zero_extendqisi2
 137 00c2 B4EEE77A 		vcmpe.f32	s14, s15
 138 00c6 08ED030A 		vstr.32	s0, [r8, #-12]
 139 00ca 082B     		cmp	r3, #8
 140 00cc 28BF     		it	cs
 141 00ce 0023     		movcs	r3, #0
 142 00d0 F1EE10FA 		vmrs	APSR_nzcv, FPSCR
 143 00d4 08F8243C 		strb	r3, [r8, #-36]
 144 00d8 CCBF     		ite	gt
 145 00da 104B     		ldrgt	r3, .L21+16
 146 00dc 104B     		ldrle	r3, .L21+20
 147 00de 55F8047F 		ldr	r7, [r5, #4]!
 148 00e2 1A68     		ldr	r2, [r3]	@ float
 149 00e4 3744     		add	r7, r7, r6
 150 00e6 48F8202C 		str	r2, [r8, #-32]	@ float
 151 00ea FFF7FEFF 		bl	_ZN7daisysp10Oscillator7ProcessEv
 152 00ee A145     		cmp	r9, r4
 153 00f0 87ED000A 		vstr.32	s0, [r7]
 154 00f4 C4D1     		bne	.L11
 155 00f6 0AF1010A 		add	r10, r10, #1
 156 00fa 029B     		ldr	r3, [sp, #8]
 157 00fc 5345     		cmp	r3, r10
 158 00fe B9D1     		bne	.L12
 159              	.L5:
 160 0100 05B0     		add	sp, sp, #20
 161              		@ sp needed
 162 0102 BDEC028B 		vldm	sp!, {d8}
 163 0106 BDE8F08F 		pop	{r4, r5, r6, r7, r8, r9, r10, fp, pc}
 164              	.L22:
 165 010a 00BF     		.align	2
 166              	.L21:
 167 010c 00000000 		.word	.LANCHOR0
 168 0110 00000000 		.word	.LANCHOR1
 169 0114 00000000 		.word	.LANCHOR3
 170 0118 00000000 		.word	.LANCHOR4
 171 011c 00000000 		.word	.LANCHOR5
 172 0120 00000000 		.word	.LANCHOR6
 173 0124 A69B443B 		.word	994352038
 174 0128 00000000 		.word	0
 175 012c 00000000 		.word	.LANCHOR7
 176 0130 00000000 		.word	.LANCHOR9
 177 0134 00000000 		.word	.LANCHOR2
 178 0138 10000000 		.word	.LANCHOR7+16
ARM GAS  /var/folders/8d/9_h4bwrs4t923hh6vkkb02fw0000gn/T//cc0Ow2Qw.s 			page 4


 179 013c 00000000 		.word	.LANCHOR8
 181              		.section	.text.startup.main,"ax",%progbits
 182              		.align	1
 183              		.p2align 2,,3
 184              		.global	main
 185              		.syntax unified
 186              		.thumb
 187              		.thumb_func
 188              		.fpu fpv5-d16
 190              	main:
 191              		@ args = 0, pretend = 0, frame = 32
 192              		@ frame_needed = 0, uses_anonymous_args = 0
 193 0000 2DE9F041 		push	{r4, r5, r6, r7, r8, lr}
 194 0004 3748     		ldr	r0, .L28
 195 0006 384C     		ldr	r4, .L28+4
 196 0008 2DED048B 		vpush.64	{d8, d9}
 197 000c 88B0     		sub	sp, sp, #32
 198 000e 04F19005 		add	r5, r4, #144
 199 0012 FFF7FEFF 		bl	_ZN5daisy10DaisyPatch4InitEv
 200 0016 3348     		ldr	r0, .L28
 201 0018 FFF7FEFF 		bl	_ZN5daisy10DaisyPatch15AudioSampleRateEv
 202 001c 0121     		movs	r1, #1
 203 001e 3148     		ldr	r0, .L28
 204 0020 B0EE408A 		vmov.f32	s16, s0
 205 0024 FFF7FEFF 		bl	_ZN5daisy9DaisySeed6SetLedEb
 206 0028 F7EE007A 		vmov.f32	s15, #1.0e+0
 207 002c 87EE889A 		vdiv.f32	s18, s15, s16
 208              	.L24:
 209 0030 9FED2E0A 		vldr.32	s0, .L28+8
 210 0034 4FF07C53 		mov	r3, #1056964608
 211 0038 DFED2D8A 		vldr.32	s17, .L28+12
 212 003c 4FF00008 		mov	r8, #0
 213 0040 2046     		mov	r0, r4
 214 0042 84ED038A 		vstr.32	s16, [r4, #12]
 215 0046 84ED049A 		vstr.32	s18, [r4, #16]
 216 004a 84ED020A 		vstr.32	s0, [r4, #8]
 217 004e C4ED058A 		vstr.32	s17, [r4, #20]
 218 0052 6360     		str	r3, [r4, #4]	@ float
 219 0054 FFF7FEFF 		bl	_ZN7daisysp10Oscillator12CalcPhaseIncEf
 220 0058 84ED060A 		vstr.32	s0, [r4, #24]
 221 005c 04F8248B 		strb	r8, [r4], #36
 222 0060 AC42     		cmp	r4, r5
 223 0062 E5D1     		bne	.L24
 224 0064 234D     		ldr	r5, .L28+16
 225 0066 01AC     		add	r4, sp, #4
 226 0068 DFED230A 		vldr.32	s1, .L28+20
 227 006c 01AF     		add	r7, sp, #4
 228 006e 9FED230A 		vldr.32	s0, .L28+24
 229 0072 0FCD     		ldmia	r5!, {r0, r1, r2, r3}
 230 0074 0FC4     		stmia	r4!, {r0, r1, r2, r3}
 231 0076 95E80700 		ldm	r5, {r0, r1, r2}
 232 007a 05F10C06 		add	r6, r5, #12
 233 007e 84E80700 		stm	r4, {r0, r1, r2}
 234 0082 01A9     		add	r1, sp, #4
 235 0084 4246     		mov	r2, r8
 236 0086 1E48     		ldr	r0, .L28+28
 237 0088 FFF7FEFF 		bl	_ZN5daisy9Parameter4InitENS_13AnalogControlEffNS0_5CurveE
ARM GAS  /var/folders/8d/9_h4bwrs4t923hh6vkkb02fw0000gn/T//cc0Ow2Qw.s 			page 5


 238 008c F1EE000A 		vmov.f32	s1, #4.0e+0
 239 0090 B0EE680A 		vmov.f32	s0, s17
 240 0094 0FCE     		ldmia	r6!, {r0, r1, r2, r3}
 241 0096 0FC7     		stmia	r7!, {r0, r1, r2, r3}
 242 0098 96E80700 		ldm	r6, {r0, r1, r2}
 243 009c 05F12806 		add	r6, r5, #40
 244 00a0 01AF     		add	r7, sp, #4
 245 00a2 84E80700 		stm	r4, {r0, r1, r2}
 246 00a6 01A9     		add	r1, sp, #4
 247 00a8 4246     		mov	r2, r8
 248 00aa 1648     		ldr	r0, .L28+32
 249 00ac FFF7FEFF 		bl	_ZN5daisy9Parameter4InitENS_13AnalogControlEffNS0_5CurveE
 250 00b0 F7EE000A 		vmov.f32	s1, #1.0e+0
 251 00b4 B0EE680A 		vmov.f32	s0, s17
 252 00b8 0FCE     		ldmia	r6!, {r0, r1, r2, r3}
 253 00ba 0FC7     		stmia	r7!, {r0, r1, r2, r3}
 254 00bc 96E80700 		ldm	r6, {r0, r1, r2}
 255 00c0 84E80700 		stm	r4, {r0, r1, r2}
 256 00c4 01A9     		add	r1, sp, #4
 257 00c6 4246     		mov	r2, r8
 258 00c8 0F48     		ldr	r0, .L28+36
 259 00ca FFF7FEFF 		bl	_ZN5daisy9Parameter4InitENS_13AnalogControlEffNS0_5CurveE
 260 00ce A5F19C00 		sub	r0, r5, #156
 261 00d2 FFF7FEFF 		bl	_ZN5daisy10DaisyPatch8StartAdcEv
 262 00d6 A5F19C00 		sub	r0, r5, #156
 263 00da 0C49     		ldr	r1, .L28+40
 264 00dc FFF7FEFF 		bl	_ZN5daisy10DaisyPatch10StartAudioEPFvPPfS2_jE
 265              	.L25:
 266 00e0 FEE7     		b	.L25
 267              	.L29:
 268 00e2 00BF     		.align	2
 269              	.L28:
 270 00e4 00000000 		.word	.LANCHOR0
 271 00e8 00000000 		.word	.LANCHOR8
 272 00ec 0000C842 		.word	1120403456
 273 00f0 00000000 		.word	0
 274 00f4 8C000000 		.word	.LANCHOR0+140
 275 00f8 00004843 		.word	1128792064
 276 00fc CDCCCC3D 		.word	1036831949
 277 0100 00000000 		.word	.LANCHOR1
 278 0104 00000000 		.word	.LANCHOR3
 279 0108 00000000 		.word	.LANCHOR4
 280 010c 00000000 		.word	_ZL13AudioCallbackPPfS0_j
 282              		.section	.text.startup._GLOBAL__sub_I_hw,"ax",%progbits
 283              		.align	1
 284              		.p2align 2,,3
 285              		.syntax unified
 286              		.thumb
 287              		.thumb_func
 288              		.fpu fpv5-d16
 290              	_GLOBAL__sub_I_hw:
 291              		@ args = 0, pretend = 0, frame = 0
 292              		@ frame_needed = 0, uses_anonymous_args = 0
 293 0000 10B5     		push	{r4, lr}
 294 0002 0E4A     		ldr	r2, .L32
 295 0004 0E4C     		ldr	r4, .L32+4
 296 0006 0F49     		ldr	r1, .L32+8
ARM GAS  /var/folders/8d/9_h4bwrs4t923hh6vkkb02fw0000gn/T//cc0Ow2Qw.s 			page 6


 297 0008 0F48     		ldr	r0, .L32+12
 298 000a FFF7FEFF 		bl	__aeabi_atexit
 299 000e 0B4A     		ldr	r2, .L32
 300 0010 0E49     		ldr	r1, .L32+16
 301 0012 0020     		movs	r0, #0
 302 0014 FFF7FEFF 		bl	__aeabi_atexit
 303 0018 2146     		mov	r1, r4
 304 001a 084A     		ldr	r2, .L32
 305 001c 0C48     		ldr	r0, .L32+20
 306 001e FFF7FEFF 		bl	__aeabi_atexit
 307 0022 2146     		mov	r1, r4
 308 0024 054A     		ldr	r2, .L32
 309 0026 0B48     		ldr	r0, .L32+24
 310 0028 FFF7FEFF 		bl	__aeabi_atexit
 311 002c 2146     		mov	r1, r4
 312 002e 034A     		ldr	r2, .L32
 313 0030 0948     		ldr	r0, .L32+28
 314 0032 BDE81040 		pop	{r4, lr}
 315 0036 FFF7FEBF 		b	__aeabi_atexit
 316              	.L33:
 317 003a 00BF     		.align	2
 318              	.L32:
 319 003c 00000000 		.word	__dso_handle
 320 0040 00000000 		.word	_ZN5daisy9ParameterD1Ev
 321 0044 00000000 		.word	_ZN5daisy10DaisyPatchD1Ev
 322 0048 00000000 		.word	.LANCHOR0
 323 004c 00000000 		.word	__tcf_0
 324 0050 00000000 		.word	.LANCHOR1
 325 0054 00000000 		.word	.LANCHOR3
 326 0058 00000000 		.word	.LANCHOR4
 328              		.section	.init_array,"aw",%init_array
 329              		.align	2
 330 0000 00000000 		.word	_GLOBAL__sub_I_hw(target1)
 331              		.global	lfo_waveforms
 332              		.global	lfo_kr_amp
 333              		.global	lfo_amp
 334              		.global	lfo_freq
 335              		.global	factors
 336              		.global	phasectrl
 337              		.global	wavectrl
 338              		.global	freqctrl
 339              		.global	LFOS
 340              		.global	hw
 341              		.section	.bss.LFOS,"aw",%nobits
 342              		.align	2
 343              		.set	.LANCHOR8,. + 0
 346              	LFOS:
 347 0000 00000000 		.space	144
 347      00000000 
 347      00000000 
 347      00000000 
 347      00000000 
 348              		.section	.bss.freqctrl,"aw",%nobits
 349              		.align	2
 350              		.set	.LANCHOR1,. + 0
 353              	freqctrl:
 354 0000 00000000 		.space	52
ARM GAS  /var/folders/8d/9_h4bwrs4t923hh6vkkb02fw0000gn/T//cc0Ow2Qw.s 			page 7


 354      00000000 
 354      00000000 
 354      00000000 
 354      00000000 
 355              		.section	.bss.hw,"aw",%nobits
 356              		.align	2
 357              		.set	.LANCHOR0,. + 0
 360              	hw:
 361 0000 00000000 		.space	408
 361      00000000 
 361      00000000 
 361      00000000 
 361      00000000 
 362              		.section	.bss.lfo_amp,"aw",%nobits
 363              		.align	2
 364              		.set	.LANCHOR5,. + 0
 367              	lfo_amp:
 368 0000 00000000 		.space	4
 369              		.section	.bss.lfo_freq,"aw",%nobits
 370              		.align	2
 371              		.set	.LANCHOR2,. + 0
 374              	lfo_freq:
 375 0000 00000000 		.space	4
 376              		.section	.bss.lfo_kr_amp,"aw",%nobits
 377              		.align	2
 378              		.set	.LANCHOR6,. + 0
 381              	lfo_kr_amp:
 382 0000 00000000 		.space	4
 383              		.section	.bss.phasectrl,"aw",%nobits
 384              		.align	2
 385              		.set	.LANCHOR4,. + 0
 388              	phasectrl:
 389 0000 00000000 		.space	52
 389      00000000 
 389      00000000 
 389      00000000 
 389      00000000 
 390              		.section	.bss.wavectrl,"aw",%nobits
 391              		.align	2
 392              		.set	.LANCHOR3,. + 0
 395              	wavectrl:
 396 0000 00000000 		.space	52
 396      00000000 
 396      00000000 
 396      00000000 
 396      00000000 
 397              		.section	.data.factors,"aw"
 398              		.align	2
 399              		.set	.LANCHOR7,. + 0
 402              	factors:
 403 0000 00000000 		.word	0
 404 0004 0000003F 		.word	1056964608
 405 0008 9A99993F 		.word	1067030938
 406 000c 33331340 		.word	1075000115
 407              		.section	.data.lfo_waveforms,"aw"
 408              		.align	2
 409              		.set	.LANCHOR9,. + 0
ARM GAS  /var/folders/8d/9_h4bwrs4t923hh6vkkb02fw0000gn/T//cc0Ow2Qw.s 			page 8


 412              	lfo_waveforms:
 413 0000 00010204 		.ascii	"\000\001\002\004"
 414              		.hidden	__dso_handle
 415              		.ident	"GCC: (GNU Tools for Arm Embedded Processors 9-2019-q4-major) 9.2.1 20191025 (release) [ARM
ARM GAS  /var/folders/8d/9_h4bwrs4t923hh6vkkb02fw0000gn/T//cc0Ow2Qw.s 			page 9

